; ModuleID = '52/1074.c'
source_filename = "52/1074.c"
target datalayout = "e-m:e-p270:32:32-p271:32:32-p272:64:64-i64:64-f80:128-n8:16:32:64-S128"
target triple = "x86_64-pc-linux-gnu"

@.str = private unnamed_addr constant [6 x i8] c"%d %d\00", align 1
@.str.1 = private unnamed_addr constant [3 x i8] c"%d\00", align 1
@.str.2 = private unnamed_addr constant [4 x i8] c"%d \00", align 1
@.str.3 = private unnamed_addr constant [4 x i8] c"%d\0A\00", align 1

; Function Attrs: noinline nounwind uwtable
define dso_local void @move(i32* %0, i32 %1, i32 %2) #0 {
  %4 = alloca i32*, align 8
  %5 = alloca i32, align 4
  %6 = alloca i32, align 4
  %7 = alloca i32, align 4
  %8 = alloca i32*, align 8
  store i32* %0, i32** %4, align 8
  store i32 %1, i32* %5, align 4
  store i32 %2, i32* %6, align 4
  %9 = load i32*, i32** %4, align 8
  %10 = load i32, i32* %5, align 4
  %11 = sext i32 %10 to i64
  %12 = getelementptr inbounds i32, i32* %9, i64 %11
  %13 = getelementptr inbounds i32, i32* %12, i64 -1
  %14 = load i32, i32* %13, align 4
  store i32 %14, i32* %7, align 4
  %15 = load i32*, i32** %4, align 8
  %16 = load i32, i32* %5, align 4
  %17 = sext i32 %16 to i64
  %18 = getelementptr inbounds i32, i32* %15, i64 %17
  %19 = getelementptr inbounds i32, i32* %18, i64 -1
  store i32* %19, i32** %8, align 8
  br label %20

20:                                               ; preds = %29, %3
  %21 = load i32*, i32** %8, align 8
  %22 = load i32*, i32** %4, align 8
  %23 = icmp ugt i32* %21, %22
  br i1 %23, label %24, label %32

24:                                               ; preds = %20
  %25 = load i32*, i32** %8, align 8
  %26 = getelementptr inbounds i32, i32* %25, i64 -1
  %27 = load i32, i32* %26, align 4
  %28 = load i32*, i32** %8, align 8
  store i32 %27, i32* %28, align 4
  br label %29

29:                                               ; preds = %24
  %30 = load i32*, i32** %8, align 8
  %31 = getelementptr inbounds i32, i32* %30, i32 -1
  store i32* %31, i32** %8, align 8
  br label %20

32:                                               ; preds = %20
  %33 = load i32, i32* %7, align 4
  %34 = load i32*, i32** %8, align 8
  store i32 %33, i32* %34, align 4
  %35 = load i32, i32* %6, align 4
  %36 = add nsw i32 %35, -1
  store i32 %36, i32* %6, align 4
  %37 = load i32, i32* %6, align 4
  %38 = icmp sgt i32 %37, 0
  br i1 %38, label %39, label %43

39:                                               ; preds = %32
  %40 = load i32*, i32** %4, align 8
  %41 = load i32, i32* %5, align 4
  %42 = load i32, i32* %6, align 4
  call void @move(i32* %40, i32 %41, i32 %42)
  br label %43

43:                                               ; preds = %39, %32
  ret void
}

; Function Attrs: noinline nounwind uwtable
define dso_local void @main() #0 {
  %1 = alloca i32, align 4
  %2 = alloca [100 x i32], align 16
  %3 = alloca i32*, align 8
  %4 = alloca i32, align 4
  %5 = alloca i32, align 4
  %6 = getelementptr inbounds [100 x i32], [100 x i32]* %2, i64 0, i64 0
  store i32* %6, i32** %3, align 8
  %7 = call i32 (i8*, ...) @__isoc99_scanf(i8* getelementptr inbounds ([6 x i8], [6 x i8]* @.str, i64 0, i64 0), i32* %4, i32* %5)
  store i32 0, i32* %1, align 4
  br label %8

8:                                                ; preds = %17, %0
  %9 = load i32, i32* %1, align 4
  %10 = load i32, i32* %4, align 4
  %11 = icmp slt i32 %9, %10
  br i1 %11, label %12, label %20

12:                                               ; preds = %8
  %13 = load i32, i32* %1, align 4
  %14 = sext i32 %13 to i64
  %15 = getelementptr inbounds [100 x i32], [100 x i32]* %2, i64 0, i64 %14
  %16 = call i32 (i8*, ...) @__isoc99_scanf(i8* getelementptr inbounds ([3 x i8], [3 x i8]* @.str.1, i64 0, i64 0), i32* %15)
  br label %17

17:                                               ; preds = %12
  %18 = load i32, i32* %1, align 4
  %19 = add nsw i32 %18, 1
  store i32 %19, i32* %1, align 4
  br label %8

20:                                               ; preds = %8
  %21 = getelementptr inbounds [100 x i32], [100 x i32]* %2, i64 0, i64 0
  %22 = load i32, i32* %4, align 4
  %23 = load i32, i32* %5, align 4
  call void @move(i32* %21, i32 %22, i32 %23)
  store i32 0, i32* %1, align 4
  br label %24

24:                                               ; preds = %35, %20
  %25 = load i32, i32* %1, align 4
  %26 = load i32, i32* %4, align 4
  %27 = sub nsw i32 %26, 1
  %28 = icmp slt i32 %25, %27
  br i1 %28, label %29, label %38

29:                                               ; preds = %24
  %30 = load i32, i32* %1, align 4
  %31 = sext i32 %30 to i64
  %32 = getelementptr inbounds [100 x i32], [100 x i32]* %2, i64 0, i64 %31
  %33 = load i32, i32* %32, align 4
  %34 = call i32 (i8*, ...) @printf(i8* getelementptr inbounds ([4 x i8], [4 x i8]* @.str.2, i64 0, i64 0), i32 %33)
  br label %35

35:                                               ; preds = %29
  %36 = load i32, i32* %1, align 4
  %37 = add nsw i32 %36, 1
  store i32 %37, i32* %1, align 4
  br label %24

38:                                               ; preds = %24
  %39 = load i32, i32* %1, align 4
  %40 = sext i32 %39 to i64
  %41 = getelementptr inbounds [100 x i32], [100 x i32]* %2, i64 0, i64 %40
  %42 = load i32, i32* %41, align 4
  %43 = call i32 (i8*, ...) @printf(i8* getelementptr inbounds ([4 x i8], [4 x i8]* @.str.3, i64 0, i64 0), i32 %42)
  ret void
}

declare dso_local i32 @__isoc99_scanf(i8*, ...) #1

declare dso_local i32 @printf(i8*, ...) #1


!llvm.module.flags = !{!0}
!llvm.ident = !{!1}

!0 = !{i32 1, !"wchar_size", i32 4}
!1 = !{!"clang version 10.0.0-4ubuntu1 "}
